Certificate:
    Data:
        Version: 3 (0x2)
        Serial Number: 1048577 (0x100001)
    Signature Algorithm: sha256WithRSAEncryption
        Issuer: C=CN, ST=guangdong, O=DigiCert, OU=Root CA, CN=DigiCert Root CA - R1
        Validity
            Not Before: May 20 07:45:08 2022 GMT
            Not After : May  7 07:45:08 2072 GMT
        Subject: C=CN, ST=guangdong, O=DigiCert, OU=alsoapp.com, CN=DigiCert Trust CN RSA CA G1
        Subject Public Key Info:
            Public Key Algorithm: rsaEncryption
                Public-Key: (2048 bit)
                Modulus:
                    00:d1:d5:ac:6e:b7:43:13:15:b4:13:cb:e2:d7:07:
                    e5:38:34:74:df:9d:bc:5b:0c:8c:3e:e5:71:d6:a3:
                    87:f7:16:f4:b1:bc:69:95:49:0e:2d:a5:3c:83:09:
                    b6:cb:b2:b4:37:6d:7e:8c:21:80:bc:8d:bf:fe:c5:
                    2e:66:46:07:b6:72:0c:fc:70:61:ea:c5:4f:85:9f:
                    04:72:78:65:9a:a0:b9:00:7c:c3:1a:ec:c1:01:b9:
                    d0:df:f1:ea:3f:73:a7:2b:5c:d3:b1:24:2b:ad:74:
                    7c:b8:72:8f:b9:c5:07:10:98:22:8c:7f:97:fc:2b:
                    ac:1b:a7:6f:84:36:a4:26:e8:a1:4d:bd:1d:50:6b:
                    39:40:49:ba:f4:a1:bf:34:5a:1b:7e:3f:48:44:0b:
                    9c:bc:45:e5:3d:bc:f6:a5:9c:0f:86:1c:6c:5a:3e:
                    9f:a2:da:8a:5a:ab:3f:c8:2c:17:7d:47:57:d6:b0:
                    dc:f0:cf:58:14:e9:db:ad:bd:f1:91:d3:66:e3:d9:
                    f8:20:7b:e2:3c:b3:5d:e1:93:0b:77:38:fd:26:d2:
                    b3:7f:99:63:82:2b:28:0f:c6:c6:3d:62:f3:62:33:
                    35:63:4c:56:5a:83:e4:22:9b:ea:c5:5c:26:eb:2d:
                    b7:1d:37:12:82:06:48:e7:84:4b:60:b8:d8:6e:4d:
                    81:b3
                Exponent: 65537 (0x10001)
        X509v3 extensions:
            X509v3 Basic Constraints: 
                CA:TRUE
    Signature Algorithm: sha256WithRSAEncryption
         90:49:aa:d3:5d:25:05:04:bd:59:0b:43:70:27:db:6f:6a:03:
         2f:19:83:f5:20:4c:86:32:c6:5a:e2:a6:0f:b5:5c:ba:6a:c8:
         e4:24:b7:60:22:b5:28:64:8c:a9:95:ff:8b:e0:ad:1e:ee:cf:
         21:12:4e:8b:c3:12:a2:23:1f:5b:02:8b:a6:21:24:38:cb:14:
         1b:2a:0b:b0:0b:bb:fa:ee:90:96:ba:ea:22:96:04:56:80:c9:
         7a:17:93:5b:da:c2:04:84:89:06:18:d2:12:ba:31:33:7d:c4:
         34:b6:c1:ab:f9:d4:06:c2:a1:9c:62:f7:1c:80:53:f0:69:d0:
         f5:98:12:d0:f1:b0:e9:0f:9d:36:ae:c6:09:a1:0e:09:1c:dc:
         a7:86:2b:93:28:08:79:95:b8:13:4a:2b:43:f8:3c:82:43:30:
         89:3b:fa:41:83:b6:1b:a6:63:0d:8b:bf:32:de:f0:3b:b9:94:
         08:3c:5d:2e:b0:07:dd:8b:4e:12:fe:90:20:e6:b5:86:65:94:
         d5:d9:bc:16:4b:0b:fc:a2:e2:37:b1:18:95:a3:04:6f:d0:51:
         e2:ad:43:4e:0c:e9:d5:0a:e6:ce:cb:d1:14:d7:af:10:b6:84:
         df:63:53:03:cb:20:ea:9f:e9:5b:eb:2a:1f:59:50:31:fa:a3:
         d1:80:b5:f8
-----BEGIN CERTIFICATE-----
MIIDZTCCAk2gAwIBAgIDEAABMA0GCSqGSIb3DQEBCwUAMGYxCzAJBgNVBAYTAkNO
MRIwEAYDVQQIDAlndWFuZ2RvbmcxETAPBgNVBAoMCERpZ2lDZXJ0MRAwDgYDVQQL
DAdSb290IENBMR4wHAYDVQQDDBVEaWdpQ2VydCBSb290IENBIC0gUjEwIBcNMjIw
NTIwMDc0NTA4WhgPMjA3MjA1MDcwNzQ1MDhaMHAxCzAJBgNVBAYTAkNOMRIwEAYD
VQQIDAlndWFuZ2RvbmcxETAPBgNVBAoMCERpZ2lDZXJ0MRQwEgYDVQQLDAthbHNv
YXBwLmNvbTEkMCIGA1UEAwwbRGlnaUNlcnQgVHJ1c3QgQ04gUlNBIENBIEcxMIIB
IjANBgkqhkiG9w0BAQEFAAOCAQ8AMIIBCgKCAQEA0dWsbrdDExW0E8vi1wflODR0
3528WwyMPuVx1qOH9xb0sbxplUkOLaU8gwm2y7K0N21+jCGAvI2//sUuZkYHtnIM
/HBh6sVPhZ8EcnhlmqC5AHzDGuzBAbnQ3/HqP3OnK1zTsSQrrXR8uHKPucUHEJgi
jH+X/CusG6dvhDakJuihTb0dUGs5QEm69KG/NFobfj9IRAucvEXlPbz2pZwPhhxs
Wj6fotqKWqs/yCwXfUdX1rDc8M9YFOnbrb3xkdNm49n4IHviPLNd4ZMLdzj9JtKz
f5ljgisoD8bGPWLzYjM1Y0xWWoPkIpvqxVwm6y23HTcSggZI54RLYLjYbk2BswID
AQABoxAwDjAMBgNVHRMEBTADAQH/MA0GCSqGSIb3DQEBCwUAA4IBAQCQSarTXSUF
BL1ZC0NwJ9tvagMvGYP1IEyGMsZa4qYPtVy6asjkJLdgIrUoZIyplf+L4K0e7s8h
Ek6LwxKiIx9bAoumISQ4yxQbKguwC7v67pCWuuoilgRWgMl6F5Nb2sIEhIkGGNIS
ujEzfcQ0tsGr+dQGwqGcYvccgFPwadD1mBLQ8bDpD502rsYJoQ4JHNynhiuTKAh5
lbgTSitD+DyCQzCJO/pBg7YbpmMNi78y3vA7uZQIPF0usAfdi04S/pAg5rWGZZTV
2bwWSwv8ouI3sRiVowRv0FHirUNODOnVCubOy9EU168QtoTfY1MDyyDqn+lb6yof
WVAx+qPRgLX4
-----END CERTIFICATE-----
